target datalayout = "e-m:e-p270:32:32-p271:32:32-p272:64:64-i64:64-i128:128-f80:128-n8:16:32:64-S128"
target triple = "x86_64-pc-linux-gnu"

%struct.prov_cipher_ctx_st = type { [16 x i8], [16 x i8], [16 x i8], ptr, %union.anon, i32, i64, i64, i64, i64, i32, i8, i32, ptr, i32, i64, i32, i64, i32, ptr, ptr, ptr }
%union.anon = type { ptr }

; Function Attrs: nounwind uwtable
define void @ossl_cipher_generic_initkey(ptr noundef %0, i64 noundef %1, i64 noundef %2, i64 noundef %3, i32 noundef %4, i64 noundef %5, ptr noundef %6, ptr noundef %7) #0 {
  %9 = alloca ptr, align 8
  %10 = alloca i64, align 8
  %11 = alloca i64, align 8
  %12 = alloca i64, align 8
  %13 = alloca i32, align 4
  %14 = alloca i64, align 8
  %15 = alloca ptr, align 8
  %16 = alloca ptr, align 8
  %17 = alloca ptr, align 8
  store ptr %0, ptr %9, align 8, !tbaa !3
  store i64 %1, ptr %10, align 8, !tbaa !11
  store i64 %2, ptr %11, align 8, !tbaa !11
  store i64 %3, ptr %12, align 8, !tbaa !11
  store i32 %4, ptr %13, align 4, !tbaa !9
  store i64 %5, ptr %14, align 8, !tbaa !11
  store ptr %6, ptr %15, align 8, !tbaa !49
  store ptr %7, ptr %16, align 8, !tbaa !3
  call void @llvm.lifetime.start.p0(i64 8, ptr %17) #7
  %18 = load ptr, ptr %9, align 8, !tbaa !3
  store ptr %18, ptr %17, align 8, !tbaa !13
  %19 = load i64, ptr %14, align 8, !tbaa !11
  %20 = and i64 %19, 512
  %21 = icmp ne i64 %20, 0
  br i1 %21, label %22, label %28

22:                                               ; preds = %8
  %23 = load ptr, ptr %17, align 8, !tbaa !13
  %24 = getelementptr inbounds nuw %struct.prov_cipher_ctx_st, ptr %23, i32 0, i32 11
  %25 = load i8, ptr %24, align 4
  %26 = and i8 %25, -65
  %27 = or i8 %26, 64
  store i8 %27, ptr %24, align 4
  br label %28

28:                                               ; preds = %22, %8
  %29 = load i64, ptr %14, align 8, !tbaa !11
  %30 = and i64 %29, 256
  %31 = icmp ne i64 %30, 0
  br i1 %31, label %32, label %38

32:                                               ; preds = %28
  %33 = load ptr, ptr %17, align 8, !tbaa !13
  %34 = getelementptr inbounds nuw %struct.prov_cipher_ctx_st, ptr %33, i32 0, i32 11
  %35 = load i8, ptr %34, align 4
  %36 = and i8 %35, -33
  %37 = or i8 %36, 32
  store i8 %37, ptr %34, align 4
  br label %38

38:                                               ; preds = %32, %28
  %39 = load ptr, ptr %17, align 8, !tbaa !13
  %40 = getelementptr inbounds nuw %struct.prov_cipher_ctx_st, ptr %39, i32 0, i32 11
  %41 = load i8, ptr %40, align 4
  %42 = and i8 %41, -2
  %43 = or i8 %42, 1
  store i8 %43, ptr %40, align 4
  %44 = load i64, ptr %10, align 8, !tbaa !11
  %45 = udiv i64 %44, 8
  %46 = load ptr, ptr %17, align 8, !tbaa !13
  %47 = getelementptr inbounds nuw %struct.prov_cipher_ctx_st, ptr %46, i32 0, i32 6
  store i64 %45, ptr %47, align 8, !tbaa !15
  %48 = load i64, ptr %12, align 8, !tbaa !11
  %49 = udiv i64 %48, 8
  %50 = load ptr, ptr %17, align 8, !tbaa !13
  %51 = getelementptr inbounds nuw %struct.prov_cipher_ctx_st, ptr %50, i32 0, i32 7
  store i64 %49, ptr %51, align 8, !tbaa !28
  %52 = load ptr, ptr %15, align 8, !tbaa !49
  %53 = load ptr, ptr %17, align 8, !tbaa !13
  %54 = getelementptr inbounds nuw %struct.prov_cipher_ctx_st, ptr %53, i32 0, i32 19
  store ptr %52, ptr %54, align 8, !tbaa !29
  %55 = load i32, ptr %13, align 4, !tbaa !9
  %56 = load ptr, ptr %17, align 8, !tbaa !13
  %57 = getelementptr inbounds nuw %struct.prov_cipher_ctx_st, ptr %56, i32 0, i32 5
  store i32 %55, ptr %57, align 8, !tbaa !27
  %58 = load i64, ptr %11, align 8, !tbaa !11
  %59 = udiv i64 %58, 8
  %60 = load ptr, ptr %17, align 8, !tbaa !13
  %61 = getelementptr inbounds nuw %struct.prov_cipher_ctx_st, ptr %60, i32 0, i32 8
  store i64 %59, ptr %61, align 8, !tbaa !39
  %62 = load ptr, ptr %16, align 8, !tbaa !3
  %63 = icmp ne ptr %62, null
  br i1 %63, label %64, label %69

64:                                               ; preds = %38
  %65 = load ptr, ptr %16, align 8, !tbaa !3
  %66 = call ptr @ossl_prov_ctx_get0_libctx(ptr noundef %65)
  %67 = load ptr, ptr %17, align 8, !tbaa !13
  %68 = getelementptr inbounds nuw %struct.prov_cipher_ctx_st, ptr %67, i32 0, i32 21
  store ptr %66, ptr %68, align 8, !tbaa !45
  br label %69

69:                                               ; preds = %64, %38
  call void @llvm.lifetime.end.p0(i64 8, ptr %17) #7
  ret void
}