; Function Attrs: nounwind uwtable
define void @ossl_cipher_generic_initkey(ptr noundef captures(none) initializes((64, 68), (72, 96), (168, 176)) %0, i64 noundef %1, i64 noundef %2, i64 noundef %3, i32 noundef %4, i64 noundef %5, ptr noundef %6, ptr noundef %7) local_unnamed_addr #1 {
  %9 = and i64 %5, 512
  %.not = icmp eq i64 %9, 0
  br i1 %.not, label %._crit_edge, label %10

10:                                               ; preds = %8
  %11 = getelementptr inbounds nuw i8, ptr %0, i64 108
  %12 = load i8, ptr %11, align 4
  %13 = or i8 %12, 64
  store i8 %13, ptr %11, align 4
  br label %._crit_edge

._crit_edge:                                      ; preds = %10, %8
  %.phi.trans.insert = getelementptr inbounds nuw i8, ptr %0, i64 108
  %.pre = load i8, ptr %.phi.trans.insert, align 4
  %14 = lshr i64 %5, 3
  %15 = trunc i64 %14 to i8
  %16 = and i8 %15, 32
  %17 = or i8 %.pre, %16
  %18 = getelementptr inbounds nuw i8, ptr %0, i64 108
  %19 = or i8 %17, 1
  store i8 %19, ptr %18, align 4
  %20 = lshr i64 %1, 3
  %21 = getelementptr inbounds nuw i8, ptr %0, i64 72
  store i64 %20, ptr %21, align 8, !tbaa !11
  %22 = lshr i64 %3, 3
  %23 = getelementptr inbounds nuw i8, ptr %0, i64 80
  store i64 %22, ptr %23, align 8, !tbaa !22
  %24 = getelementptr inbounds nuw i8, ptr %0, i64 168
  store ptr %6, ptr %24, align 8, !tbaa !23
  %25 = getelementptr inbounds nuw i8, ptr %0, i64 64
  store i32 %4, ptr %25, align 8, !tbaa !21
  %26 = lshr i64 %2, 3
  %27 = getelementptr inbounds nuw i8, ptr %0, i64 88
  store i64 %26, ptr %27, align 8, !tbaa !30
  %.not19 = icmp eq ptr %7, null
  br i1 %.not19, label %31, label %28

28:                                               ; preds = %._crit_edge
  %29 = tail call ptr @ossl_prov_ctx_get0_libctx(ptr noundef nonnull %7) #6
  %30 = getelementptr inbounds nuw i8, ptr %0, i64 184
  store ptr %29, ptr %30, align 8, !tbaa !36
  br label %31

31:                                               ; preds = %28, %._crit_edge
  ret void
}